Certificate:
    Data:
        Version: 3 (0x2)
        Serial Number: 0 (0x0)
    Signature Algorithm: ecdsa-with-SHA256
        Issuer: C=JP, CN=CA
        Validity
            Not Before: Nov  3 08:51:17 2016 GMT
            Not After : Nov  3 08:51:17 2017 GMT
        Subject: C=JP, CN=www.example.com
        Subject Public Key Info:
            Public Key Algorithm: id-ecPublicKey
                Public-Key: (256 bit)
                pub: 
                    04:2e:f6:a2:d8:a5:62:8b:f2:00:5e:4d:cd:ea:9e:
                    43:4a:b5:cd:3b:bd:8f:22:88:79:13:81:9d:33:06:
                    95:3a:8e:cf:64:d0:bb:1f:3d:e0:69:28:11:65:3d:
                    ae:e3:d3:e2:d8:8e:1a:9e:0e:35:b4:6c:15:fe:08:
                    a0:3e:fc:32:c0
                ASN1 OID: prime256v1
                NIST CURVE: P-256
        X509v3 extensions:
            X509v3 Basic Constraints: 
                CA:FALSE
            Netscape Comment: 
                OpenSSL Generated Certificate
            X509v3 Subject Key Identifier: 
                4D:2C:3F:8F:3D:7C:A0:D6:1C:D5:5B:3A:19:47:E1:5B:1E:22:1E:B1
            X509v3 Authority Key Identifier: 
                keyid:82:91:29:04:FD:8D:BE:7D:A4:AA:0B:26:27:F0:94:A8:38:A1:25:32

            X509v3 Extended Key Usage: 
                TLS Web Server Authentication, TLS Web Client Authentication
    Signature Algorithm: ecdsa-with-SHA256
         30:44:02:20:61:89:e3:bd:e4:87:59:d3:34:01:d4:a6:ff:79:
         8e:bf:ea:60:3a:88:f5:e7:39:2d:b4:60:d1:01:d7:e1:85:c1:
         02:20:5a:a5:af:88:39:55:65:b3:63:e9:a6:7d:8b:c9:73:ba:
         e6:cc:17:f7:3a:f3:46:1c:0e:98:33:d4:a6:96:f0:96
-----BEGIN CERTIFICATE-----
MIIByzCCAXKgAwIBAgIBADAKBggqhkjOPQQDAjAaMQswCQYDVQQGEwJKUDELMAkG
A1UEAwwCQ0EwHhcNMTYxMTAzMDg1MTE3WhcNMTcxMTAzMDg1MTE3WjAnMQswCQYD
VQQGEwJKUDEYMBYGA1UEAwwPd3d3LmV4YW1wbGUuY29tMFkwEwYHKoZIzj0CAQYI
KoZIzj0DAQcDQgAELvai2KVii/IAXk3N6p5DSrXNO72PIoh5E4GdMwaVOo7PZNC7
Hz3gaSgRZT2u49Pi2I4ang41tGwV/gigPvwywKOBmzCBmDAJBgNVHRMEAjAAMCwG
CWCGSAGG+EIBDQQfFh1PcGVuU1NMIEdlbmVyYXRlZCBDZXJ0aWZpY2F0ZTAdBgNV
HQ4EFgQUTSw/jz18oNYc1Vs6GUfhWx4iHrEwHwYDVR0jBBgwFoAUgpEpBP2Nvn2k
qgsmJ/CUqDihJTIwHQYDVR0lBBYwFAYIKwYBBQUHAwEGCCsGAQUFBwMCMAoGCCqG
SM49BAMCA0cAMEQCIGGJ473kh1nTNAHUpv95jr/qYDqI9ec5LbRg0QHX4YXBAiBa
pa+IOVVls2Pppn2LyXO65swX9zrzRhwOmDPUppbwlg==
-----END CERTIFICATE-----
